; Function Attrs: nounwind uwtable
define hidden void @zim_Generator_key(ptr noundef readonly captures(none) %0, ptr noundef writeonly captures(none) %1) #0 {
  %3 = getelementptr inbounds nuw i8, ptr %0, i64 44
  %4 = load i32, ptr %3, align 4, !tbaa !24
  %.not = icmp eq i32 %4, 0
  br i1 %.not, label %6, label %5, !prof !58

5:                                                ; preds = %2
  tail call void @zend_wrong_parameters_none_error() #11
  br label %.critedge

6:                                                ; preds = %2
  %7 = getelementptr inbounds nuw i8, ptr %0, i64 32
  %8 = load ptr, ptr %7, align 8, !tbaa !24
  %9 = getelementptr inbounds nuw i8, ptr %8, i64 80
  %10 = load i8, ptr %9, align 8, !tbaa !24
  %11 = icmp eq i8 %10, 0
  br i1 %11, label %12, label %zend_generator_ensure_initialized.exit, !prof !26

12:                                               ; preds = %6
  %13 = getelementptr inbounds nuw i8, ptr %8, i64 56
  %14 = load ptr, ptr %13, align 8, !tbaa !56
  %.not.i23 = icmp eq ptr %14, null
  br i1 %.not.i23, label %zend_generator_ensure_initialized.exit, label %15, !prof !26

15:                                               ; preds = %12
  %16 = getelementptr inbounds nuw i8, ptr %8, i64 152
  %17 = load ptr, ptr %16, align 8, !tbaa !94
  %18 = icmp eq ptr %17, null
  br i1 %18, label %19, label %zend_generator_ensure_initialized.exit, !prof !58

19:                                               ; preds = %15
  tail call void @zend_generator_resume(ptr noundef nonnull %8)
  %20 = getelementptr inbounds nuw i8, ptr %8, i64 272
  %21 = load i8, ptr %20, align 8, !tbaa !99
  %22 = or i8 %21, 4
  store i8 %22, ptr %20, align 8, !tbaa !99
  br label %zend_generator_ensure_initialized.exit

zend_generator_ensure_initialized.exit:           ; preds = %6, %12, %15, %19
  %23 = getelementptr inbounds nuw i8, ptr %8, i64 152
  %24 = load ptr, ptr %23, align 8, !tbaa !94
  %25 = icmp eq ptr %24, null
  br i1 %25, label %zend_generator_get_current.exit, label %26, !prof !58

26:                                               ; preds = %zend_generator_ensure_initialized.exit
  %27 = getelementptr inbounds nuw i8, ptr %8, i64 176
  %28 = load ptr, ptr %27, align 8, !tbaa !24
  %.not.i = icmp eq ptr %28, null
  br i1 %.not.i, label %.preheader, label %36

.preheader:                                       ; preds = %26, %.preheader
  %.0.i24 = phi ptr [ %30, %.preheader ], [ %24, %26 ]
  %29 = getelementptr inbounds nuw i8, ptr %.0.i24, i64 152
  %30 = load ptr, ptr %29, align 8, !tbaa !94
  %.not.i25 = icmp eq ptr %30, null
  br i1 %.not.i25, label %31, label %.preheader

31:                                               ; preds = %.preheader
  %32 = getelementptr inbounds nuw i8, ptr %.0.i24, i64 176
  %33 = load ptr, ptr %32, align 8, !tbaa !24
  %.not8.i.i = icmp eq ptr %33, null
  br i1 %.not8.i.i, label %zend_generator_update_root.exit, label %34

34:                                               ; preds = %31
  %35 = getelementptr inbounds nuw i8, ptr %33, i64 176
  store ptr null, ptr %35, align 8, !tbaa !24
  store ptr null, ptr %32, align 8, !tbaa !24
  br label %zend_generator_update_root.exit

zend_generator_update_root.exit:                  ; preds = %31, %34
  store ptr %8, ptr %32, align 8, !tbaa !24
  store ptr %.0.i24, ptr %27, align 8, !tbaa !24
  br label %36

36:                                               ; preds = %zend_generator_update_root.exit, %26
  %.0.i = phi ptr [ %28, %26 ], [ %.0.i24, %zend_generator_update_root.exit ]
  %37 = getelementptr inbounds nuw i8, ptr %.0.i, i64 56
  %38 = load ptr, ptr %37, align 8, !tbaa !56
  %.not11.i = icmp eq ptr %38, null
  br i1 %.not11.i, label %39, label %zend_generator_get_current.exit, !prof !26

39:                                               ; preds = %36
  %40 = tail call ptr @zend_generator_update_current(ptr noundef nonnull %8)
  br label %zend_generator_get_current.exit

zend_generator_get_current.exit:                  ; preds = %zend_generator_ensure_initialized.exit, %36, %39
  %.09.i = phi ptr [ %8, %zend_generator_ensure_initialized.exit ], [ %40, %39 ], [ %.0.i, %36 ]
  %41 = getelementptr inbounds nuw i8, ptr %8, i64 56
  %42 = load ptr, ptr %41, align 8, !tbaa !56
  %.not20 = icmp eq ptr %42, null
  br i1 %.not20, label %.critedge, label %43, !prof !26

43:                                               ; preds = %zend_generator_get_current.exit
  %44 = getelementptr inbounds nuw i8, ptr %.09.i, i64 88
  %45 = getelementptr inbounds nuw i8, ptr %.09.i, i64 96
  %46 = load i8, ptr %45, align 8, !tbaa !24
  %.not26 = icmp eq i8 %46, 0
  br i1 %.not26, label %.critedge, label %47, !prof !26

47:                                               ; preds = %43
  %48 = load i32, ptr %45, align 8
  %49 = and i32 %48, 65280
  %.not21 = icmp eq i32 %49, 0
  br i1 %.not21, label %63, label %50

50:                                               ; preds = %47
  %51 = and i32 %48, 255
  %52 = icmp eq i32 %51, 10
  br i1 %52, label %53, label %.sink.split, !prof !26

53:                                               ; preds = %50
  %54 = load ptr, ptr %44, align 8, !tbaa !24
  %55 = getelementptr inbounds nuw i8, ptr %54, i64 8
  %56 = getelementptr inbounds nuw i8, ptr %54, i64 16
  %57 = load i32, ptr %56, align 8
  %58 = and i32 %57, 65280
  %.not22 = icmp eq i32 %58, 0
  br i1 %.not22, label %63, label %.sink.split

.sink.split:                                      ; preds = %50, %53
  %.sink31 = phi i32 [ %57, %53 ], [ %48, %50 ]
  %.sink.in = phi ptr [ %55, %53 ], [ %44, %50 ]
  %59 = and i32 %.sink31, 65280
  %60 = icmp ne i32 %59, 0
  tail call void @llvm.assume(i1 %60)
  %.sink = load ptr, ptr %.sink.in, align 8, !tbaa !24
  %61 = load i32, ptr %.sink, align 4, !tbaa !65
  %62 = add i32 %61, 1
  store i32 %62, ptr %.sink, align 4, !tbaa !65
  br label %63

63:                                               ; preds = %.sink.split, %47, %53
  %.0 = phi ptr [ %55, %53 ], [ %44, %47 ], [ %.sink.in, %.sink.split ]
  %64 = load ptr, ptr %.0, align 8, !tbaa !24
  %65 = getelementptr inbounds nuw i8, ptr %.0, i64 8
  %66 = load i32, ptr %65, align 8, !tbaa !24
  store ptr %64, ptr %1, align 8, !tbaa !24
  %67 = getelementptr inbounds nuw i8, ptr %1, i64 8
  store i32 %66, ptr %67, align 8, !tbaa !24
  br label %.critedge

.critedge:                                        ; preds = %43, %zend_generator_get_current.exit, %63, %5
  ret void
}